; Function Attrs: nounwind uwtable
define noundef ptr @zend_ast_create_constant(ptr noundef %0, i16 noundef zeroext %1) local_unnamed_addr #0 {
  %3 = load ptr, ptr getelementptr inbounds (%struct._zend_compiler_globals, ptr @compiler_globals, i64 0, i32 32), align 8
  %4 = load ptr, ptr %3, align 8
  %5 = getelementptr inbounds i8, ptr %3, i64 8
  %6 = load ptr, ptr %5, align 8
  %7 = ptrtoint ptr %6 to i64
  %8 = ptrtoint ptr %4 to i64
  %9 = sub i64 %7, %8
  %.not.i = icmp ult i64 %9, 24
  br i1 %.not.i, label %12, label %10

10:                                               ; preds = %2
  %11 = getelementptr inbounds i8, ptr %4, i64 24
  store ptr %11, ptr %3, align 8
  br label %zend_ast_alloc.exit

12:                                               ; preds = %2
  %13 = ptrtoint ptr %3 to i64
  %14 = sub i64 %7, %13
  %..i = tail call i64 @llvm.umax.i64(i64 %14, i64 48)
  %15 = tail call noalias ptr @_emalloc(i64 noundef %..i) #13
  %16 = getelementptr inbounds i8, ptr %15, i64 24
  %17 = getelementptr inbounds i8, ptr %15, i64 48
  store ptr %17, ptr %15, align 8
  %18 = getelementptr inbounds i8, ptr %15, i64 %..i
  %19 = getelementptr inbounds i8, ptr %15, i64 8
  store ptr %18, ptr %19, align 8
  %20 = getelementptr inbounds i8, ptr %15, i64 16
  store ptr %3, ptr %20, align 8
  store ptr %15, ptr getelementptr inbounds (%struct._zend_compiler_globals, ptr @compiler_globals, i64 0, i32 32), align 8
  br label %zend_ast_alloc.exit

zend_ast_alloc.exit:                              ; preds = %10, %12
  %.0.i = phi ptr [ %4, %10 ], [ %16, %12 ]
  store i16 65, ptr %.0.i, align 8
  %21 = getelementptr inbounds i8, ptr %.0.i, i64 2
  store i16 %1, ptr %21, align 2
  %22 = getelementptr inbounds i8, ptr %.0.i, i64 8
  store ptr %0, ptr %22, align 8
  %23 = getelementptr inbounds i8, ptr %0, i64 4
  %24 = load i32, ptr %23, align 4
  %25 = and i32 %24, 64
  %.not = icmp eq i32 %25, 0
  %26 = select i1 %.not, i32 262, i32 6
  %27 = getelementptr inbounds i8, ptr %.0.i, i64 16
  store i32 %26, ptr %27, align 8
  %28 = load i32, ptr getelementptr inbounds (%struct._zend_compiler_globals, ptr @compiler_globals, i64 0, i32 3), align 8
  %29 = getelementptr inbounds i8, ptr %.0.i, i64 20
  store i32 %28, ptr %29, align 4
  ret ptr %.0.i
}